target datalayout = "e-m:e-p270:32:32-p271:32:32-p272:64:64-i64:64-i128:128-f80:128-n8:16:32:64-S128"
target triple = "x86_64-pc-linux-gnu"

%struct.DdManager = type { %struct.DdNode, ptr, ptr, ptr, ptr, ptr, ptr, ptr, i32, i32, double, double, double, i32, i32, i32, i32, i32, i32, ptr, ptr, %struct.DdSubtable, i32, i32, i32, i32, i32, i32, i32, double, i32, i32, i32, ptr, i64, double, i32, ptr, ptr, ptr, ptr, ptr, ptr, ptr, i32, ptr, ptr, ptr, ptr, ptr, ptr, i32, i32, i32, double, i32, i32, i32, i32, double, double, i32, i32, i32, i32, i32, i32, i32, i32, i32, ptr, ptr, i32, i32, i32, i32, i32, i32, ptr, ptr, ptr, ptr, ptr, ptr, ptr, ptr, i32, i64, i64, i64, i32, i64, i64, double, double, double, double, double, double, i32, ptr, ptr, i64 }
%struct.DdNode = type { i32, i32, ptr, %union.anon, i64 }
%union.anon = type { %struct.DdChildren }
%struct.DdChildren = type { ptr, ptr }
%struct.DdSubtable = type { ptr, i32, i32, i32, i32, i32, i32, i32, i32, i32, i32, i32 }

@GetSingleOutputFunctionRemappedNewDD.Permute = internal global [1024 x i32] zeroinitializer, align 16
@GetSingleOutputFunctionRemappedNewDD.pRemapped = internal global [1024 x ptr] zeroinitializer, align 16
@GetSingleOutputFunctionRemappedNewDD.pbVarsEnc = internal global [1024 x ptr] zeroinitializer, align 16

; Function Attrs: inlinehint nounwind uwtable
define internal i32 @Abc_Base2Log(i32 noundef %0) #3 {
  %2 = alloca i32, align 4
  %3 = alloca i32, align 4
  %4 = alloca i32, align 4
  %5 = alloca i32, align 4
  store i32 %0, ptr %3, align 4, !tbaa !12
  call void @llvm.lifetime.start.p0(i64 4, ptr %4) #5
  %6 = load i32, ptr %3, align 4, !tbaa !12
  %7 = icmp ult i32 %6, 2
  br i1 %7, label %8, label %10

8:                                                ; preds = %1
  %9 = load i32, ptr %3, align 4, !tbaa !12
  store i32 %9, ptr %2, align 4
  store i32 1, ptr %5, align 4
  br label %24

10:                                               ; preds = %1
  store i32 0, ptr %4, align 4, !tbaa !12
  %11 = load i32, ptr %3, align 4, !tbaa !12
  %12 = add i32 %11, -1
  store i32 %12, ptr %3, align 4, !tbaa !12
  br label %13

13:                                               ; preds = %17, %10
  %14 = load i32, ptr %3, align 4, !tbaa !12
  %15 = icmp ne i32 %14, 0
  br i1 %15, label %16, label %22

16:                                               ; preds = %13
  br label %17

17:                                               ; preds = %16
  %18 = load i32, ptr %3, align 4, !tbaa !12
  %19 = lshr i32 %18, 1
  store i32 %19, ptr %3, align 4, !tbaa !12
  %20 = load i32, ptr %4, align 4, !tbaa !12
  %21 = add nsw i32 %20, 1
  store i32 %21, ptr %4, align 4, !tbaa !12
  br label %13, !llvm.loop !23

22:                                               ; preds = %13
  %23 = load i32, ptr %4, align 4, !tbaa !12
  store i32 %23, ptr %2, align 4
  store i32 1, ptr %5, align 4
  br label %24

24:                                               ; preds = %22, %8
  call void @llvm.lifetime.end.p0(i64 4, ptr %4) #5
  %25 = load i32, ptr %2, align 4
  ret i32 %25
}

; Function Attrs: nounwind uwtable
define ptr @GetSingleOutputFunctionRemappedNewDD(ptr noundef %0, ptr noundef %1, i32 noundef %2, ptr noundef %3) #0 {
  %5 = alloca ptr, align 8
  %6 = alloca ptr, align 8
  %7 = alloca i32, align 4
  %8 = alloca ptr, align 8
  %9 = alloca i32, align 4
  %10 = alloca ptr, align 8
  %11 = alloca ptr, align 8
  %12 = alloca ptr, align 8
  %13 = alloca i32, align 4
  %14 = alloca i32, align 4
  %15 = alloca i32, align 4
  %16 = alloca ptr, align 8
  %17 = alloca ptr, align 8
  %18 = alloca ptr, align 8
  %19 = alloca i32, align 4
  store ptr %0, ptr %5, align 8, !tbaa !8
  store ptr %1, ptr %6, align 8, !tbaa !10
  store i32 %2, ptr %7, align 4, !tbaa !12
  store ptr %3, ptr %8, align 8, !tbaa !49
  call void @llvm.lifetime.start.p0(i64 4, ptr %9) #5
  call void @llvm.lifetime.start.p0(i64 8, ptr %10) #5
  call void @llvm.lifetime.start.p0(i64 8, ptr %11) #5
  call void @llvm.lifetime.start.p0(i64 8, ptr %12) #5
  call void @llvm.lifetime.start.p0(i64 4, ptr %13) #5
  call void @llvm.lifetime.start.p0(i64 4, ptr %14) #5
  call void @llvm.lifetime.start.p0(i64 4, ptr %15) #5
  call void @llvm.lifetime.start.p0(i64 8, ptr %16) #5
  call void @llvm.lifetime.start.p0(i64 8, ptr %17) #5
  call void @llvm.lifetime.start.p0(i64 8, ptr %18) #5
  call void @llvm.lifetime.start.p0(i64 4, ptr %19) #5
  store i32 0, ptr %19, align 4, !tbaa !12
  store i32 0, ptr %13, align 4, !tbaa !12
  br label %20

20:                                               ; preds = %82, %4
  %21 = load i32, ptr %13, align 4, !tbaa !12
  %22 = load i32, ptr %7, align 4, !tbaa !12
  %23 = icmp slt i32 %21, %22
  br i1 %23, label %24, label %85

24:                                               ; preds = %20
  %25 = load ptr, ptr %5, align 8, !tbaa !8
  %26 = load ptr, ptr %6, align 8, !tbaa !10
  %27 = load i32, ptr %13, align 4, !tbaa !12
  %28 = sext i32 %27 to i64
  %29 = getelementptr inbounds ptr, ptr %26, i64 %28
  %30 = load ptr, ptr %29, align 8, !tbaa !14
  %31 = call ptr @Cudd_Support(ptr noundef %25, ptr noundef %30)
  store ptr %31, ptr %11, align 8, !tbaa !14
  %32 = load ptr, ptr %11, align 8, !tbaa !14
  call void @Cudd_Ref(ptr noundef %32)
  store i32 0, ptr %15, align 4, !tbaa !12
  %33 = load ptr, ptr %11, align 8, !tbaa !14
  store ptr %33, ptr %12, align 8, !tbaa !14
  br label %34

34:                                               ; preds = %54, %24
  %35 = load ptr, ptr %12, align 8, !tbaa !14
  %36 = load ptr, ptr %5, align 8, !tbaa !8
  %37 = getelementptr inbounds nuw %struct.DdManager, ptr %36, i32 0, i32 1
  %38 = load ptr, ptr %37, align 8, !tbaa !25
  %39 = icmp ne ptr %35, %38
  br i1 %39, label %40, label %59

40:                                               ; preds = %34
  %41 = load ptr, ptr %5, align 8, !tbaa !8
  %42 = getelementptr inbounds nuw %struct.DdManager, ptr %41, i32 0, i32 39
  %43 = load ptr, ptr %42, align 8, !tbaa !51
  %44 = load i32, ptr %15, align 4, !tbaa !12
  %45 = add nsw i32 %44, 1
  store i32 %45, ptr %15, align 4, !tbaa !12
  %46 = sext i32 %44 to i64
  %47 = getelementptr inbounds i32, ptr %43, i64 %46
  %48 = load i32, ptr %47, align 4, !tbaa !12
  %49 = load ptr, ptr %12, align 8, !tbaa !14
  %50 = getelementptr inbounds nuw %struct.DdNode, ptr %49, i32 0, i32 0
  %51 = load i32, ptr %50, align 8, !tbaa !44
  %52 = zext i32 %51 to i64
  %53 = getelementptr inbounds nuw [1024 x i32], ptr @GetSingleOutputFunctionRemappedNewDD.Permute, i64 0, i64 %52
  store i32 %48, ptr %53, align 4, !tbaa !12
  br label %54

54:                                               ; preds = %40
  %55 = load ptr, ptr %12, align 8, !tbaa !14
  %56 = getelementptr inbounds nuw %struct.DdNode, ptr %55, i32 0, i32 3
  %57 = getelementptr inbounds nuw %struct.DdChildren, ptr %56, i32 0, i32 0
  %58 = load ptr, ptr %57, align 8, !tbaa !45
  store ptr %58, ptr %12, align 8, !tbaa !14
  br label %34, !llvm.loop !52

59:                                               ; preds = %34
  %60 = load ptr, ptr %5, align 8, !tbaa !8
  %61 = load ptr, ptr %6, align 8, !tbaa !10
  %62 = load i32, ptr %13, align 4, !tbaa !12
  %63 = sext i32 %62 to i64
  %64 = getelementptr inbounds ptr, ptr %61, i64 %63
  %65 = load ptr, ptr %64, align 8, !tbaa !14
  %66 = call ptr @Cudd_bddPermute(ptr noundef %60, ptr noundef %65, ptr noundef @GetSingleOutputFunctionRemappedNewDD.Permute)
  %67 = load i32, ptr %13, align 4, !tbaa !12
  %68 = sext i32 %67 to i64
  %69 = getelementptr inbounds [1024 x ptr], ptr @GetSingleOutputFunctionRemappedNewDD.pRemapped, i64 0, i64 %68
  store ptr %66, ptr %69, align 8, !tbaa !14
  %70 = load i32, ptr %13, align 4, !tbaa !12
  %71 = sext i32 %70 to i64
  %72 = getelementptr inbounds [1024 x ptr], ptr @GetSingleOutputFunctionRemappedNewDD.pRemapped, i64 0, i64 %71
  %73 = load ptr, ptr %72, align 8, !tbaa !14
  call void @Cudd_Ref(ptr noundef %73)
  %74 = load ptr, ptr %5, align 8, !tbaa !8
  %75 = load ptr, ptr %11, align 8, !tbaa !14
  call void @Cudd_RecursiveDeref(ptr noundef %74, ptr noundef %75)
  %76 = load i32, ptr %19, align 4, !tbaa !12
  %77 = load i32, ptr %15, align 4, !tbaa !12
  %78 = icmp slt i32 %76, %77
  br i1 %78, label %79, label %81

79:                                               ; preds = %59
  %80 = load i32, ptr %15, align 4, !tbaa !12
  store i32 %80, ptr %19, align 4, !tbaa !12
  br label %81

81:                                               ; preds = %79, %59
  br label %82

82:                                               ; preds = %81
  %83 = load i32, ptr %13, align 4, !tbaa !12
  %84 = add nsw i32 %83, 1
  store i32 %84, ptr %13, align 4, !tbaa !12
  br label %20, !llvm.loop !53

85:                                               ; preds = %20
  %86 = load i32, ptr %7, align 4, !tbaa !12
  %87 = call i32 @Abc_Base2Log(i32 noundef %86)
  store i32 %87, ptr %9, align 4, !tbaa !12
  store i32 0, ptr %14, align 4, !tbaa !12
  br label %88

88:                                               ; preds = %99, %85
  %89 = load i32, ptr %14, align 4, !tbaa !12
  %90 = load i32, ptr %9, align 4, !tbaa !12
  %91 = icmp slt i32 %89, %90
  br i1 %91, label %92, label %102

92:                                               ; preds = %88
  %93 = load ptr, ptr %5, align 8, !tbaa !8
  %94 = load i32, ptr %14, align 4, !tbaa !12
  %95 = call ptr @Cudd_bddNewVarAtLevel(ptr noundef %93, i32 noundef %94)
  %96 = load i32, ptr %14, align 4, !tbaa !12
  %97 = sext i32 %96 to i64
  %98 = getelementptr inbounds [1024 x ptr], ptr @GetSingleOutputFunctionRemappedNewDD.pbVarsEnc, i64 0, i64 %97
  store ptr %95, ptr %98, align 8, !tbaa !14
  br label %99

99:                                               ; preds = %92
  %100 = load i32, ptr %14, align 4, !tbaa !12
  %101 = add nsw i32 %100, 1
  store i32 %101, ptr %14, align 4, !tbaa !12
  br label %88, !llvm.loop !54

102:                                              ; preds = %88
  %103 = load ptr, ptr %5, align 8, !tbaa !8
  %104 = load i32, ptr %7, align 4, !tbaa !12
  %105 = load i32, ptr %9, align 4, !tbaa !12
  %106 = call ptr @Extra_bddEncodingBinary(ptr noundef %103, ptr noundef @GetSingleOutputFunctionRemappedNewDD.pRemapped, i32 noundef %104, ptr noundef @GetSingleOutputFunctionRemappedNewDD.pbVarsEnc, i32 noundef %105)
  store ptr %106, ptr %16, align 8, !tbaa !14
  %107 = load ptr, ptr %16, align 8, !tbaa !14
  call void @Cudd_Ref(ptr noundef %107)
  store i32 0, ptr %14, align 4, !tbaa !12
  br label %108

108:                                              ; preds = %125, %102
  %109 = load i32, ptr %14, align 4, !tbaa !12
  %110 = load i32, ptr %19, align 4, !tbaa !12
  %111 = load i32, ptr %9, align 4, !tbaa !12
  %112 = add nsw i32 %110, %111
  %113 = icmp slt i32 %109, %112
  br i1 %113, label %114, label %128

114:                                              ; preds = %108
  %115 = load i32, ptr %14, align 4, !tbaa !12
  %116 = load ptr, ptr %5, align 8, !tbaa !8
  %117 = getelementptr inbounds nuw %struct.DdManager, ptr %116, i32 0, i32 39
  %118 = load ptr, ptr %117, align 8, !tbaa !51
  %119 = load i32, ptr %14, align 4, !tbaa !12
  %120 = sext i32 %119 to i64
  %121 = getelementptr inbounds i32, ptr %118, i64 %120
  %122 = load i32, ptr %121, align 4, !tbaa !12
  %123 = sext i32 %122 to i64
  %124 = getelementptr inbounds [1024 x i32], ptr @GetSingleOutputFunctionRemappedNewDD.Permute, i64 0, i64 %123
  store i32 %115, ptr %124, align 4, !tbaa !12
  br label %125

125:                                              ; preds = %114
  %126 = load i32, ptr %14, align 4, !tbaa !12
  %127 = add nsw i32 %126, 1
  store i32 %127, ptr %14, align 4, !tbaa !12
  br label %108, !llvm.loop !55

128:                                              ; preds = %108
  %129 = load i32, ptr %19, align 4, !tbaa !12
  %130 = load i32, ptr %9, align 4, !tbaa !12
  %131 = add nsw i32 %129, %130
  %132 = call ptr @Cudd_Init(i32 noundef %131, i32 noundef 0, i32 noundef 256, i32 noundef 262144, i64 noundef 0)
  store ptr %132, ptr %10, align 8, !tbaa !8
  %133 = load ptr, ptr %5, align 8, !tbaa !8
  call void @Cudd_AutodynEnable(ptr noundef %133, i32 noundef 6)
  %134 = load ptr, ptr %5, align 8, !tbaa !8
  %135 = load ptr, ptr %10, align 8, !tbaa !8
  %136 = load ptr, ptr %16, align 8, !tbaa !14
  %137 = call ptr @Cudd_bddTransferPermute(ptr noundef %134, ptr noundef %135, ptr noundef %136, ptr noundef @GetSingleOutputFunctionRemappedNewDD.Permute)
  store ptr %137, ptr %17, align 8, !tbaa !14
  %138 = load ptr, ptr %17, align 8, !tbaa !14
  call void @Cudd_Ref(ptr noundef %138)
  %139 = load ptr, ptr %5, align 8, !tbaa !8
  %140 = load ptr, ptr %16, align 8, !tbaa !14
  call void @Cudd_RecursiveDeref(ptr noundef %139, ptr noundef %140)
  store i32 0, ptr %13, align 4, !tbaa !12
  br label %141

141:                                              ; preds = %151, %128
  %142 = load i32, ptr %13, align 4, !tbaa !12
  %143 = load i32, ptr %7, align 4, !tbaa !12
  %144 = icmp slt i32 %142, %143
  br i1 %144, label %145, label %154

145:                                              ; preds = %141
  %146 = load ptr, ptr %5, align 8, !tbaa !8
  %147 = load i32, ptr %13, align 4, !tbaa !12
  %148 = sext i32 %147 to i64
  %149 = getelementptr inbounds [1024 x ptr], ptr @GetSingleOutputFunctionRemappedNewDD.pRemapped, i64 0, i64 %148
  %150 = load ptr, ptr %149, align 8, !tbaa !14
  call void @Cudd_RecursiveDeref(ptr noundef %146, ptr noundef %150)
  br label %151

151:                                              ; preds = %145
  %152 = load i32, ptr %13, align 4, !tbaa !12
  %153 = add nsw i32 %152, 1
  store i32 %153, ptr %13, align 4, !tbaa !12
  br label %141, !llvm.loop !56

154:                                              ; preds = %141
  %155 = load ptr, ptr %10, align 8, !tbaa !8
  %156 = load ptr, ptr %17, align 8, !tbaa !14
  %157 = call ptr @Cudd_BddToAdd(ptr noundef %155, ptr noundef %156)
  store ptr %157, ptr %18, align 8, !tbaa !14
  %158 = load ptr, ptr %18, align 8, !tbaa !14
  call void @Cudd_Ref(ptr noundef %158)
  %159 = load ptr, ptr %10, align 8, !tbaa !8
  %160 = load ptr, ptr %17, align 8, !tbaa !14
  call void @Cudd_RecursiveDeref(ptr noundef %159, ptr noundef %160)
  %161 = load ptr, ptr %10, align 8, !tbaa !8
  %162 = load ptr, ptr %8, align 8, !tbaa !49
  store ptr %161, ptr %162, align 8, !tbaa !8
  %163 = load ptr, ptr %18, align 8, !tbaa !14
  call void @Cudd_Deref(ptr noundef %163)
  %164 = load ptr, ptr %18, align 8, !tbaa !14
  call void @llvm.lifetime.end.p0(i64 4, ptr %19) #5
  call void @llvm.lifetime.end.p0(i64 8, ptr %18) #5
  call void @llvm.lifetime.end.p0(i64 8, ptr %17) #5
  call void @llvm.lifetime.end.p0(i64 8, ptr %16) #5
  call void @llvm.lifetime.end.p0(i64 4, ptr %15) #5
  call void @llvm.lifetime.end.p0(i64 4, ptr %14) #5
  call void @llvm.lifetime.end.p0(i64 4, ptr %13) #5
  call void @llvm.lifetime.end.p0(i64 8, ptr %12) #5
  call void @llvm.lifetime.end.p0(i64 8, ptr %11) #5
  call void @llvm.lifetime.end.p0(i64 8, ptr %10) #5
  call void @llvm.lifetime.end.p0(i64 4, ptr %9) #5
  ret ptr %164
}