; Function Attrs: nounwind uwtable
define noundef ptr @GetSingleOutputFunctionRemappedNewDD(ptr noundef %0, ptr noundef readonly captures(none) %1, i32 noundef %2, ptr noundef writeonly captures(none) %3) local_unnamed_addr #0 {
  %5 = icmp sgt i32 %2, 0
  br i1 %5, label %.lr.ph79, label %._crit_edge80

.lr.ph79:                                         ; preds = %4
  %6 = getelementptr inbounds nuw i8, ptr %0, i64 40
  %7 = getelementptr inbounds nuw i8, ptr %0, i64 328
  %wide.trip.count = zext nneg i32 %2 to i64
  br label %8

8:                                                ; preds = %.lr.ph79, %._crit_edge
  %indvars.iv98 = phi i64 [ 0, %.lr.ph79 ], [ %indvars.iv.next99, %._crit_edge ]
  %.077 = phi i32 [ 0, %.lr.ph79 ], [ %spec.select, %._crit_edge ]
  %9 = getelementptr inbounds nuw ptr, ptr %1, i64 %indvars.iv98
  %10 = load ptr, ptr %9, align 8, !tbaa !3
  %11 = tail call ptr @Cudd_Support(ptr noundef %0, ptr noundef %10) #14
  tail call void @Cudd_Ref(ptr noundef %11) #14
  %12 = load ptr, ptr %6, align 8, !tbaa !22
  %.not73 = icmp eq ptr %11, %12
  br i1 %.not73, label %._crit_edge, label %.lr.ph

.lr.ph:                                           ; preds = %8
  %13 = load ptr, ptr %7, align 8, !tbaa !43
  br label %14

14:                                               ; preds = %.lr.ph, %14
  %indvars.iv = phi i64 [ 0, %.lr.ph ], [ %indvars.iv.next, %14 ]
  %.06475 = phi ptr [ %11, %.lr.ph ], [ %21, %14 ]
  %indvars.iv.next = add nuw nsw i64 %indvars.iv, 1
  %15 = getelementptr inbounds nuw i32, ptr %13, i64 %indvars.iv
  %16 = load i32, ptr %15, align 4, !tbaa !19
  %17 = load i32, ptr %.06475, align 8, !tbaa !38
  %18 = zext i32 %17 to i64
  %19 = getelementptr inbounds nuw [1024 x i32], ptr @GetSingleOutputFunctionRemappedNewDD.Permute, i64 0, i64 %18
  store i32 %16, ptr %19, align 4, !tbaa !19
  %20 = getelementptr inbounds nuw i8, ptr %.06475, i64 16
  %21 = load ptr, ptr %20, align 8, !tbaa !39
  %.not = icmp eq ptr %21, %12
  br i1 %.not, label %._crit_edge.loopexit, label %14, !llvm.loop !44

._crit_edge.loopexit:                             ; preds = %14
  %22 = trunc nuw i64 %indvars.iv.next to i32
  br label %._crit_edge

._crit_edge:                                      ; preds = %._crit_edge.loopexit, %8
  %.069.lcssa = phi i32 [ 0, %8 ], [ %22, %._crit_edge.loopexit ]
  %23 = load ptr, ptr %9, align 8, !tbaa !3
  %24 = tail call ptr @Cudd_bddPermute(ptr noundef nonnull %0, ptr noundef %23, ptr noundef nonnull @GetSingleOutputFunctionRemappedNewDD.Permute) #14
  %25 = getelementptr inbounds nuw [1024 x ptr], ptr @GetSingleOutputFunctionRemappedNewDD.pRemapped, i64 0, i64 %indvars.iv98
  store ptr %24, ptr %25, align 8, !tbaa !3
  tail call void @Cudd_Ref(ptr noundef %24) #14
  tail call void @Cudd_RecursiveDeref(ptr noundef nonnull %0, ptr noundef %11) #14
  %spec.select = tail call i32 @llvm.umax.i32(i32 %.077, i32 %.069.lcssa)
  %indvars.iv.next99 = add nuw nsw i64 %indvars.iv98, 1
  %exitcond.not = icmp eq i64 %indvars.iv.next99, %wide.trip.count
  br i1 %exitcond.not, label %._crit_edge80, label %8, !llvm.loop !45

._crit_edge80:                                    ; preds = %._crit_edge, %4
  %.0.lcssa = phi i32 [ 0, %4 ], [ %spec.select, %._crit_edge ]
  %26 = icmp ult i32 %2, 2
  %27 = add i32 %2, -1
  %28 = tail call range(i32 0, 33) i32 @llvm.ctlz.i32(i32 %27, i1 true)
  %29 = sub nuw nsw i32 32, %28
  %.09.i = select i1 %26, i32 %2, i32 %29
  %.not95 = icmp eq i32 %.09.i, 0
  br i1 %.not95, label %._crit_edge85, label %.lr.ph84.preheader

.lr.ph84.preheader:                               ; preds = %._crit_edge80
  %wide.trip.count104 = zext nneg i32 %.09.i to i64
  br label %.lr.ph84

.lr.ph84:                                         ; preds = %.lr.ph84.preheader, %.lr.ph84
  %indvars.iv101 = phi i64 [ 0, %.lr.ph84.preheader ], [ %indvars.iv.next102, %.lr.ph84 ]
  %30 = trunc nuw nsw i64 %indvars.iv101 to i32
  %31 = tail call ptr @Cudd_bddNewVarAtLevel(ptr noundef %0, i32 noundef %30) #14
  %32 = getelementptr inbounds nuw [1024 x ptr], ptr @GetSingleOutputFunctionRemappedNewDD.pbVarsEnc, i64 0, i64 %indvars.iv101
  store ptr %31, ptr %32, align 8, !tbaa !3
  %indvars.iv.next102 = add nuw nsw i64 %indvars.iv101, 1
  %exitcond105.not = icmp eq i64 %indvars.iv.next102, %wide.trip.count104
  br i1 %exitcond105.not, label %._crit_edge85, label %.lr.ph84, !llvm.loop !46

._crit_edge85:                                    ; preds = %.lr.ph84, %._crit_edge80
  %33 = tail call ptr @Extra_bddEncodingBinary(ptr noundef %0, ptr noundef nonnull @GetSingleOutputFunctionRemappedNewDD.pRemapped, i32 noundef %2, ptr noundef nonnull @GetSingleOutputFunctionRemappedNewDD.pbVarsEnc, i32 noundef %.09.i) #14
  tail call void @Cudd_Ref(ptr noundef %33) #14
  %34 = add nuw nsw i32 %.0.lcssa, %.09.i
  %.not96 = icmp eq i32 %34, 0
  br i1 %.not96, label %._crit_edge89, label %.lr.ph88

.lr.ph88:                                         ; preds = %._crit_edge85
  %35 = getelementptr inbounds nuw i8, ptr %0, i64 328
  %36 = load ptr, ptr %35, align 8, !tbaa !43
  %wide.trip.count109 = zext i32 %34 to i64
  br label %37

37:                                               ; preds = %.lr.ph88, %37
  %indvars.iv106 = phi i64 [ 0, %.lr.ph88 ], [ %indvars.iv.next107, %37 ]
  %38 = getelementptr inbounds nuw i32, ptr %36, i64 %indvars.iv106
  %39 = load i32, ptr %38, align 4, !tbaa !19
  %40 = sext i32 %39 to i64
  %41 = getelementptr inbounds [1024 x i32], ptr @GetSingleOutputFunctionRemappedNewDD.Permute, i64 0, i64 %40
  %42 = trunc nuw nsw i64 %indvars.iv106 to i32
  store i32 %42, ptr %41, align 4, !tbaa !19
  %indvars.iv.next107 = add nuw nsw i64 %indvars.iv106, 1
  %exitcond110.not = icmp eq i64 %indvars.iv.next107, %wide.trip.count109
  br i1 %exitcond110.not, label %._crit_edge89, label %37, !llvm.loop !47

._crit_edge89:                                    ; preds = %37, %._crit_edge85
  %43 = tail call ptr @Cudd_Init(i32 noundef %34, i32 noundef 0, i32 noundef 256, i32 noundef 262144, i64 noundef 0) #14
  tail call void @Cudd_AutodynEnable(ptr noundef %0, i32 noundef 6) #14
  %44 = tail call ptr @Cudd_bddTransferPermute(ptr poison, ptr noundef %43, ptr noundef %33, ptr noundef nonnull @GetSingleOutputFunctionRemappedNewDD.Permute)
  tail call void @Cudd_Ref(ptr noundef %44) #14
  tail call void @Cudd_RecursiveDeref(ptr noundef %0, ptr noundef %33) #14
  br i1 %5, label %.lr.ph93.preheader, label %._crit_edge94

.lr.ph93.preheader:                               ; preds = %._crit_edge89
  %wide.trip.count114 = zext nneg i32 %2 to i64
  br label %.lr.ph93

.lr.ph93:                                         ; preds = %.lr.ph93.preheader, %.lr.ph93
  %indvars.iv111 = phi i64 [ 0, %.lr.ph93.preheader ], [ %indvars.iv.next112, %.lr.ph93 ]
  %45 = getelementptr inbounds nuw [1024 x ptr], ptr @GetSingleOutputFunctionRemappedNewDD.pRemapped, i64 0, i64 %indvars.iv111
  %46 = load ptr, ptr %45, align 8, !tbaa !3
  tail call void @Cudd_RecursiveDeref(ptr noundef %0, ptr noundef %46) #14
  %indvars.iv.next112 = add nuw nsw i64 %indvars.iv111, 1
  %exitcond115.not = icmp eq i64 %indvars.iv.next112, %wide.trip.count114
  br i1 %exitcond115.not, label %._crit_edge94, label %.lr.ph93, !llvm.loop !48

._crit_edge94:                                    ; preds = %.lr.ph93, %._crit_edge89
  %47 = tail call ptr @Cudd_BddToAdd(ptr noundef %43, ptr noundef %44) #14
  tail call void @Cudd_Ref(ptr noundef %47) #14
  tail call void @Cudd_RecursiveDeref(ptr noundef %43, ptr noundef %44) #14
  store ptr %43, ptr %3, align 8, !tbaa !49
  tail call void @Cudd_Deref(ptr noundef %47) #14
  ret ptr %47
}